; Function Attrs: mustprogress uwtable
define hidden noundef range(i32 -1, 33) i32 @_ZNK10duckdb_re23RE220ReverseProgramFanoutEPSt6vectorIiSaIiEE(ptr noundef nonnull align 8 dereferenceable(148) %0, ptr noundef %1) local_unnamed_addr #2 align 2 personality ptr @__gxx_personality_v0 {
  %3 = alloca %class.anon.78, align 8
  %4 = alloca %class.anon.27, align 1
  %5 = alloca ptr, align 8
  %6 = getelementptr inbounds nuw i8, ptr %0, i64 104
  %7 = load ptr, ptr %6, align 8, !tbaa !74
  %8 = icmp eq ptr %7, null
  br i1 %8, label %24, label %9

9:                                                ; preds = %2
  %10 = getelementptr inbounds nuw i8, ptr %0, i64 136
  call void @llvm.lifetime.start.p0(i64 1, ptr nonnull %4) #31
  call void @llvm.lifetime.start.p0(i64 8, ptr nonnull %5) #31
  store ptr %0, ptr %5, align 8, !tbaa !89
  call void @llvm.lifetime.start.p0(i64 16, ptr nonnull %3) #31
  store ptr %4, ptr %3, align 8, !tbaa !33
  %11 = getelementptr inbounds nuw i8, ptr %3, i64 8
  store ptr %5, ptr %11, align 8, !tbaa !91
  %12 = call align 8 ptr @llvm.threadlocal.address.p0(ptr align 8 @_ZSt15__once_callable)
  store ptr %3, ptr %12, align 8, !tbaa !33
  %13 = call align 8 ptr @llvm.threadlocal.address.p0(ptr align 8 @_ZSt11__once_call)
  store ptr @"_ZZNSt9once_flag18_Prepare_executionC1IZSt9call_onceIZNK10duckdb_re23RE211ReverseProgEvE3$_0JPKS4_EEvRS_OT_DpOT0_EUlvE_EERS9_ENUlvE_8__invokeEv", ptr %13, align 8, !tbaa !33
  %14 = invoke noundef i32 @pthread_once(ptr noundef nonnull align 4 dereferenceable(4) %10, ptr noundef nonnull @__once_proxy)
          to label %_ZL14__gthread_oncePiPFvvE.exit.i.i unwind label %17

_ZL14__gthread_oncePiPFvvE.exit.i.i:              ; preds = %9
  %.not.i.i = icmp eq i32 %14, 0
  br i1 %.not.i.i, label %_ZNK10duckdb_re23RE211ReverseProgEv.exit, label %15

15:                                               ; preds = %_ZL14__gthread_oncePiPFvvE.exit.i.i
  invoke void @_ZSt20__throw_system_errori(i32 noundef %14) #34
          to label %16 unwind label %17

16:                                               ; preds = %15
  unreachable

17:                                               ; preds = %15, %9
  %18 = landingpad { ptr, i32 }
          cleanup
  store ptr null, ptr %12, align 8, !tbaa !33
  store ptr null, ptr %13, align 8, !tbaa !33
  call void @llvm.lifetime.end.p0(i64 16, ptr nonnull %3) #31
  resume { ptr, i32 } %18

_ZNK10duckdb_re23RE211ReverseProgEv.exit:         ; preds = %_ZL14__gthread_oncePiPFvvE.exit.i.i
  store ptr null, ptr %12, align 8, !tbaa !33
  store ptr null, ptr %13, align 8, !tbaa !33
  call void @llvm.lifetime.end.p0(i64 16, ptr nonnull %3) #31
  call void @llvm.lifetime.end.p0(i64 8, ptr nonnull %5) #31
  call void @llvm.lifetime.end.p0(i64 1, ptr nonnull %4) #31
  %19 = getelementptr inbounds nuw i8, ptr %0, i64 112
  %20 = load ptr, ptr %19, align 8, !tbaa !93
  %21 = icmp eq ptr %20, null
  br i1 %21, label %24, label %22

22:                                               ; preds = %_ZNK10duckdb_re23RE211ReverseProgEv.exit
  %23 = call fastcc noundef i32 @_ZN10duckdb_re2L6FanoutEPNS_4ProgEPSt6vectorIiSaIiEE(ptr noundef %20, ptr noundef %1)
  br label %24

24:                                               ; preds = %22, %_ZNK10duckdb_re23RE211ReverseProgEv.exit, %2
  %.0 = phi i32 [ -1, %2 ], [ %23, %22 ], [ -1, %_ZNK10duckdb_re23RE211ReverseProgEv.exit ]
  ret i32 %.0
}